; Function Attrs: nounwind uwtable
define i32 @Abc_NodeMffcLabel(ptr noundef %0, ptr noundef %1) local_unnamed_addr #0 {
  %3 = tail call i32 @Abc_NodeDeref_rec(ptr noundef %0)
  %4 = load ptr, ptr %0, align 8
  %5 = getelementptr inbounds nuw i8, ptr %4, i64 232
  %6 = load ptr, ptr %5, align 8
  %.not.i = icmp eq ptr %6, null
  br i1 %.not.i, label %7, label %Abc_NtkIncrementTravId.exit

7:                                                ; preds = %2
  %8 = getelementptr inbounds nuw i8, ptr %4, i64 224
  %9 = getelementptr i8, ptr %4, i64 32
  %.val.i = load ptr, ptr %9, align 8
  %10 = getelementptr i8, ptr %.val.i, i64 4
  %.val.val.i = load i32, ptr %10, align 4
  %11 = add nsw i32 %.val.val.i, 500
  %12 = load i32, ptr %8, align 8
  %.not.i.i.i = icmp slt i32 %12, %11
  br i1 %.not.i.i.i, label %13, label %Vec_IntGrow.exit.i.i

13:                                               ; preds = %7
  %14 = sext i32 %11 to i64
  %15 = shl nsw i64 %14, 2
  %16 = tail call noalias ptr @malloc(i64 noundef %15) #9
  store ptr %16, ptr %5, align 8
  store i32 %11, ptr %8, align 8
  br label %Vec_IntGrow.exit.i.i

Vec_IntGrow.exit.i.i:                             ; preds = %13, %7
  %17 = icmp sgt i32 %.val.val.i, -500
  br i1 %17, label %.lr.ph.i.i, label %Vec_IntFill.exit.i

.lr.ph.i.i:                                       ; preds = %Vec_IntGrow.exit.i.i
  %wide.trip.count.i.i = zext nneg i32 %11 to i64
  br label %18

18:                                               ; preds = %18, %.lr.ph.i.i
  %indvars.iv.i.i = phi i64 [ 0, %.lr.ph.i.i ], [ %indvars.iv.next.i.i, %18 ]
  %19 = load ptr, ptr %5, align 8
  %20 = getelementptr inbounds nuw i32, ptr %19, i64 %indvars.iv.i.i
  store i32 0, ptr %20, align 4
  %indvars.iv.next.i.i = add nuw nsw i64 %indvars.iv.i.i, 1
  %exitcond.not.i.i = icmp eq i64 %indvars.iv.next.i.i, %wide.trip.count.i.i
  br i1 %exitcond.not.i.i, label %Vec_IntFill.exit.i, label %18, !llvm.loop !8

Vec_IntFill.exit.i:                               ; preds = %18, %Vec_IntGrow.exit.i.i
  %21 = getelementptr inbounds nuw i8, ptr %4, i64 228
  store i32 %11, ptr %21, align 4
  br label %Abc_NtkIncrementTravId.exit

Abc_NtkIncrementTravId.exit:                      ; preds = %2, %Vec_IntFill.exit.i
  %22 = getelementptr inbounds nuw i8, ptr %4, i64 216
  %23 = load i32, ptr %22, align 8
  %24 = add nsw i32 %23, 1
  store i32 %24, ptr %22, align 8
  tail call void @Abc_NodeMffcLabel_rec(ptr noundef nonnull %0, i32 noundef 1, ptr noundef %1)
  %25 = tail call i32 @Abc_NodeRef_rec(ptr noundef nonnull %0)
  ret i32 %3
}